target datalayout = "e-m:e-p270:32:32-p271:32:32-p272:64:64-i64:64-i128:128-f80:128-n8:16:32:64-S128"
target triple = "x86_64-pc-linux-gnu"

%struct.cdf_directory_t = type { [32 x i16], i16, i8, i8, i32, i32, i32, [2 x i64], i32, i64, i64, i32, i32, i32 }
%struct.cdf_stream_t = type { ptr, i64, i64, i64 }
%struct.cdf_dir_t = type { ptr, i64 }

; Function Attrs: nounwind uwtable
define hidden i32 @cdf_zero_stream(ptr noundef %0) #0 {
  %2 = alloca ptr, align 8
  store ptr %0, ptr %2, align 8, !tbaa !16
  %3 = load ptr, ptr %2, align 8, !tbaa !16
  %4 = getelementptr inbounds nuw %struct.cdf_stream_t, ptr %3, i32 0, i32 1
  store i64 0, ptr %4, align 8, !tbaa !43
  %5 = load ptr, ptr %2, align 8, !tbaa !16
  %6 = getelementptr inbounds nuw %struct.cdf_stream_t, ptr %5, i32 0, i32 2
  store i64 0, ptr %6, align 8, !tbaa !45
  %7 = load ptr, ptr %2, align 8, !tbaa !16
  %8 = getelementptr inbounds nuw %struct.cdf_stream_t, ptr %7, i32 0, i32 3
  store i64 0, ptr %8, align 8, !tbaa !46
  %9 = load ptr, ptr %2, align 8, !tbaa !16
  %10 = getelementptr inbounds nuw %struct.cdf_stream_t, ptr %9, i32 0, i32 0
  %11 = load ptr, ptr %10, align 8, !tbaa !47
  call void @_efree(ptr noundef %11)
  %12 = load ptr, ptr %2, align 8, !tbaa !16
  %13 = getelementptr inbounds nuw %struct.cdf_stream_t, ptr %12, i32 0, i32 0
  store ptr null, ptr %13, align 8, !tbaa !47
  ret i32 -1
}

; Function Attrs: nounwind uwtable
define hidden i32 @cdf_read_short_stream(ptr noundef %0, ptr noundef %1, ptr noundef %2, ptr noundef %3, ptr noundef %4, ptr noundef %5) #0 {
  %7 = alloca i32, align 4
  %8 = alloca ptr, align 8
  %9 = alloca ptr, align 8
  %10 = alloca ptr, align 8
  %11 = alloca ptr, align 8
  %12 = alloca ptr, align 8
  %13 = alloca ptr, align 8
  %14 = alloca i64, align 8
  %15 = alloca ptr, align 8
  %16 = alloca i32, align 4
  store ptr %0, ptr %8, align 8, !tbaa !16
  store ptr %1, ptr %9, align 8, !tbaa !16
  store ptr %2, ptr %10, align 8, !tbaa !16
  store ptr %3, ptr %11, align 8, !tbaa !16
  store ptr %4, ptr %12, align 8, !tbaa !16
  store ptr %5, ptr %13, align 8, !tbaa !16
  call void @llvm.lifetime.start.p0(i64 8, ptr %14) #13
  call void @llvm.lifetime.start.p0(i64 8, ptr %15) #13
  %17 = load ptr, ptr %13, align 8, !tbaa !16
  store ptr null, ptr %17, align 8, !tbaa !16
  store i64 0, ptr %14, align 8, !tbaa !14
  br label %18

18:                                               ; preds = %36, %6
  %19 = load i64, ptr %14, align 8, !tbaa !14
  %20 = load ptr, ptr %11, align 8, !tbaa !16
  %21 = getelementptr inbounds nuw %struct.cdf_dir_t, ptr %20, i32 0, i32 1
  %22 = load i64, ptr %21, align 8, !tbaa !57
  %23 = icmp ult i64 %19, %22
  br i1 %23, label %24, label %39

24:                                               ; preds = %18
  %25 = load ptr, ptr %11, align 8, !tbaa !16
  %26 = getelementptr inbounds nuw %struct.cdf_dir_t, ptr %25, i32 0, i32 0
  %27 = load ptr, ptr %26, align 8, !tbaa !59
  %28 = load i64, ptr %14, align 8, !tbaa !14
  %29 = getelementptr inbounds nuw %struct.cdf_directory_t, ptr %27, i64 %28
  %30 = getelementptr inbounds nuw %struct.cdf_directory_t, ptr %29, i32 0, i32 2
  %31 = load i8, ptr %30, align 2, !tbaa !60
  %32 = zext i8 %31 to i32
  %33 = icmp eq i32 %32, 5
  br i1 %33, label %34, label %35

34:                                               ; preds = %24
  br label %39

35:                                               ; preds = %24
  br label %36

36:                                               ; preds = %35
  %37 = load i64, ptr %14, align 8, !tbaa !14
  %38 = add i64 %37, 1
  store i64 %38, ptr %14, align 8, !tbaa !14
  br label %18

39:                                               ; preds = %34, %18
  %40 = load i64, ptr %14, align 8, !tbaa !14
  %41 = load ptr, ptr %11, align 8, !tbaa !16
  %42 = getelementptr inbounds nuw %struct.cdf_dir_t, ptr %41, i32 0, i32 1
  %43 = load i64, ptr %42, align 8, !tbaa !57
  %44 = icmp eq i64 %40, %43
  br i1 %44, label %45, label %46

45:                                               ; preds = %39
  br label %72

46:                                               ; preds = %39
  %47 = load ptr, ptr %11, align 8, !tbaa !16
  %48 = getelementptr inbounds nuw %struct.cdf_dir_t, ptr %47, i32 0, i32 0
  %49 = load ptr, ptr %48, align 8, !tbaa !59
  %50 = load i64, ptr %14, align 8, !tbaa !14
  %51 = getelementptr inbounds nuw %struct.cdf_directory_t, ptr %49, i64 %50
  store ptr %51, ptr %15, align 8, !tbaa !16
  %52 = load ptr, ptr %15, align 8, !tbaa !16
  %53 = load ptr, ptr %13, align 8, !tbaa !16
  store ptr %52, ptr %53, align 8, !tbaa !16
  %54 = load ptr, ptr %15, align 8, !tbaa !16
  %55 = getelementptr inbounds nuw %struct.cdf_directory_t, ptr %54, i32 0, i32 11
  %56 = load i32, ptr %55, align 8, !tbaa !39
  %57 = icmp slt i32 %56, 0
  br i1 %57, label %58, label %59

58:                                               ; preds = %46
  br label %72

59:                                               ; preds = %46
  %60 = load ptr, ptr %8, align 8, !tbaa !16
  %61 = load ptr, ptr %9, align 8, !tbaa !16
  %62 = load ptr, ptr %10, align 8, !tbaa !16
  %63 = load ptr, ptr %15, align 8, !tbaa !16
  %64 = getelementptr inbounds nuw %struct.cdf_directory_t, ptr %63, i32 0, i32 11
  %65 = load i32, ptr %64, align 8, !tbaa !39
  %66 = load ptr, ptr %15, align 8, !tbaa !16
  %67 = getelementptr inbounds nuw %struct.cdf_directory_t, ptr %66, i32 0, i32 12
  %68 = load i32, ptr %67, align 4, !tbaa !40
  %69 = zext i32 %68 to i64
  %70 = load ptr, ptr %12, align 8, !tbaa !16
  %71 = call i32 @cdf_read_long_sector_chain(ptr noundef %60, ptr noundef %61, ptr noundef %62, i32 noundef %65, i64 noundef %69, ptr noundef %70)
  store i32 %71, ptr %7, align 4
  store i32 1, ptr %16, align 4
  br label %77

72:                                               ; preds = %58, %45
  %73 = load ptr, ptr %12, align 8, !tbaa !16
  %74 = getelementptr inbounds nuw %struct.cdf_stream_t, ptr %73, i32 0, i32 0
  store ptr null, ptr %74, align 8, !tbaa !47
  %75 = load ptr, ptr %12, align 8, !tbaa !16
  %76 = call i32 @cdf_zero_stream(ptr noundef %75)
  store i32 0, ptr %7, align 4
  store i32 1, ptr %16, align 4
  br label %77

77:                                               ; preds = %72, %59
  call void @llvm.lifetime.end.p0(i64 8, ptr %15) #13
  call void @llvm.lifetime.end.p0(i64 8, ptr %14) #13
  %78 = load i32, ptr %7, align 4
  ret i32 %78
}