; Function Attrs: nounwind uwtable
define hidden range(i32 -1, 1) i32 @cdf_read_short_stream(ptr noundef readonly captures(none) %0, ptr noundef readonly captures(none) %1, ptr noundef readonly captures(none) %2, ptr noundef readonly captures(none) %3, ptr noundef captures(none) %4, ptr noundef writeonly captures(none) initializes((0, 8)) %5) local_unnamed_addr #7 {
  store ptr null, ptr %5, align 8, !tbaa !37
  %7 = getelementptr inbounds nuw i8, ptr %3, i64 8
  %8 = load i64, ptr %7, align 8, !tbaa !33
  %.not = icmp eq i64 %8, 0
  br i1 %.not, label %._crit_edge, label %.lr.ph

.lr.ph:                                           ; preds = %6
  %9 = load ptr, ptr %3, align 8, !tbaa !35
  br label %10

10:                                               ; preds = %.lr.ph, %14
  %.02123 = phi i64 [ 0, %.lr.ph ], [ %15, %14 ]
  %11 = getelementptr inbounds nuw %struct.cdf_directory_t, ptr %9, i64 %.02123, i32 2
  %12 = load i8, ptr %11, align 2, !tbaa !38
  %13 = icmp eq i8 %12, 5
  br i1 %13, label %._crit_edge, label %14

14:                                               ; preds = %10
  %15 = add nuw i64 %.02123, 1
  %exitcond.not = icmp eq i64 %15, %8
  br i1 %exitcond.not, label %._crit_edge.thread, label %10

._crit_edge:                                      ; preds = %10, %6
  %.021.lcssa = phi i64 [ 0, %6 ], [ %.02123, %10 ]
  %16 = icmp eq i64 %.021.lcssa, %8
  br i1 %16, label %._crit_edge.thread, label %17

17:                                               ; preds = %._crit_edge
  %18 = load ptr, ptr %3, align 8, !tbaa !35
  %19 = getelementptr inbounds nuw %struct.cdf_directory_t, ptr %18, i64 %.021.lcssa
  store ptr %19, ptr %5, align 8, !tbaa !37
  %20 = getelementptr inbounds nuw i8, ptr %19, i64 120
  %21 = load i32, ptr %20, align 8, !tbaa !40
  %22 = icmp slt i32 %21, 0
  br i1 %22, label %._crit_edge.thread, label %23

23:                                               ; preds = %17
  %24 = getelementptr inbounds nuw i8, ptr %19, i64 124
  %25 = load i32, ptr %24, align 4, !tbaa !41
  %26 = zext i32 %25 to i64
  %27 = tail call i32 @cdf_read_long_sector_chain(ptr noundef %0, ptr noundef %1, ptr noundef %2, i32 noundef %21, i64 noundef %26, ptr noundef %4)
  br label %28

._crit_edge.thread:                               ; preds = %14, %17, %._crit_edge
  tail call void @llvm.memset.p0.i64(ptr noundef nonnull align 8 dereferenceable(32) %4, i8 0, i64 32, i1 false)
  tail call void @_efree(ptr noundef null) #21
  store ptr null, ptr %4, align 8, !tbaa !4
  br label %28

28:                                               ; preds = %._crit_edge.thread, %23
  %.0 = phi i32 [ 0, %._crit_edge.thread ], [ %27, %23 ]
  ret i32 %.0
}